target datalayout = "e-m:e-p270:32:32-p271:32:32-p272:64:64-i64:64-i128:128-f80:128-n8:16:32:64-S128"
target triple = "x86_64-pc-linux-gnu"

%"class.gmx::OptionsModifyingIterator" = type { ptr }

; Function Attrs: mustprogress uwtable
define internal void @_ZN3gmx12_GLOBAL__N_116TimeOptionScalerINS_15FloatOptionInfoEE12visitSectionEPNS_17OptionSectionInfoE(ptr noundef nonnull align 8 dereferenceable(16) %0, ptr noundef %1) unnamed_addr #1 align 2 {
  %3 = alloca ptr, align 8
  %4 = alloca ptr, align 8
  %5 = alloca %"class.gmx::OptionsModifyingIterator", align 8
  store ptr %0, ptr %3, align 8, !tbaa !89
  store ptr %1, ptr %4, align 8, !tbaa !87
  %6 = load ptr, ptr %3, align 8
  call void @llvm.lifetime.start.p0(i64 8, ptr %5) #19
  %7 = load ptr, ptr %4, align 8, !tbaa !87
  call void @_ZN3gmx24OptionsModifyingIteratorC1EPNS_17OptionSectionInfoE(ptr noundef nonnull align 8 dereferenceable(8) %5, ptr noundef %7)
  call void @_ZNK3gmx24OptionsModifyingIterator14acceptSectionsEPNS_23OptionsModifyingVisitorE(ptr noundef nonnull align 8 dereferenceable(8) %5, ptr noundef %6)
  call void @_ZNK3gmx24OptionsModifyingIterator13acceptOptionsEPNS_23OptionsModifyingVisitorE(ptr noundef nonnull align 8 dereferenceable(8) %5, ptr noundef %6)
  call void @llvm.lifetime.end.p0(i64 8, ptr %5) #19
  ret void
}