; Function Attrs: mustprogress uwtable
define internal void @_ZN3gmx12_GLOBAL__N_116TimeOptionScalerINS_15FloatOptionInfoEE12visitSectionEPNS_17OptionSectionInfoE(ptr noundef nonnull align 8 dereferenceable(16) %0, ptr noundef %1) unnamed_addr #4 align 2 {
  %3 = alloca %"class.gmx::OptionsModifyingIterator", align 8
  call void @llvm.lifetime.start.p0(i64 8, ptr nonnull %3) #24
  call void @_ZN3gmx24OptionsModifyingIteratorC1EPNS_17OptionSectionInfoE(ptr noundef nonnull align 8 dereferenceable(8) %3, ptr noundef %1)
  call void @_ZNK3gmx24OptionsModifyingIterator14acceptSectionsEPNS_23OptionsModifyingVisitorE(ptr noundef nonnull align 8 dereferenceable(8) %3, ptr noundef nonnull %0)
  call void @_ZNK3gmx24OptionsModifyingIterator13acceptOptionsEPNS_23OptionsModifyingVisitorE(ptr noundef nonnull align 8 dereferenceable(8) %3, ptr noundef nonnull %0)
  call void @llvm.lifetime.end.p0(i64 8, ptr nonnull %3) #24
  ret void
}